target datalayout = "e-m:e-p270:32:32-p271:32:32-p272:64:64-i64:64-i128:128-f80:128-n8:16:32:64-S128"
target triple = "x86_64-pc-linux-gnu"

%struct.ParseState = type { ptr, ptr, i32, i32, ptr, ptr, ptr, ptr, ptr, ptr, i8, ptr, ptr, ptr, ptr, ptr, ptr, i8, ptr, i32, i32, ptr, ptr, i8, i8, ptr, i8, i8, i8, i8, i8, ptr, ptr, ptr, ptr, ptr, ptr }
%struct.ParseNamespaceItem = type { ptr, ptr, i32, ptr, ptr, i8, i8, i8, i8, i32 }
%struct.Node = type { i32 }
%struct.RangeTblRef = type { i32, i32 }

; Function Attrs: inlinehint nounwind uwtable
define internal ptr @newNode(i64 noundef %0, i32 noundef %1) #6 {
  %3 = alloca i64, align 8
  %4 = alloca i32, align 4
  %5 = alloca ptr, align 8
  store i64 %0, ptr %3, align 8
  store i32 %1, ptr %4, align 4
  call void @llvm.lifetime.start.p0(i64 8, ptr %5) #8
  %6 = load i64, ptr %3, align 8
  %7 = call ptr @palloc0(i64 noundef %6)
  store ptr %7, ptr %5, align 8
  %8 = load i32, ptr %4, align 4
  %9 = load ptr, ptr %5, align 8
  %10 = getelementptr inbounds nuw %struct.Node, ptr %9, i32 0, i32 0
  store i32 %8, ptr %10, align 4
  %11 = load ptr, ptr %5, align 8
  call void @llvm.lifetime.end.p0(i64 8, ptr %5) #8
  ret ptr %11
}

; Function Attrs: nounwind uwtable
define dso_local void @addNSItemToQuery(ptr noundef %0, ptr noundef %1, i1 noundef zeroext %2, i1 noundef zeroext %3, i1 noundef zeroext %4) #0 {
  %6 = alloca ptr, align 8
  %7 = alloca ptr, align 8
  %8 = alloca i8, align 1
  %9 = alloca i8, align 1
  %10 = alloca i8, align 1
  %11 = alloca ptr, align 8
  store ptr %0, ptr %6, align 8
  store ptr %1, ptr %7, align 8
  %12 = zext i1 %2 to i8
  store i8 %12, ptr %8, align 1
  %13 = zext i1 %3 to i8
  store i8 %13, ptr %9, align 1
  %14 = zext i1 %4 to i8
  store i8 %14, ptr %10, align 1
  %15 = load i8, ptr %8, align 1, !range !6, !noundef !7
  %16 = trunc i8 %15 to i1
  br i1 %16, label %17, label %31

17:                                               ; preds = %5
  call void @llvm.lifetime.start.p0(i64 8, ptr %11) #8
  %18 = call ptr @newNode(i64 noundef 8, i32 noundef 63)
  store ptr %18, ptr %11, align 8
  %19 = load ptr, ptr %7, align 8
  %20 = getelementptr inbounds nuw %struct.ParseNamespaceItem, ptr %19, i32 0, i32 2
  %21 = load i32, ptr %20, align 8
  %22 = load ptr, ptr %11, align 8
  %23 = getelementptr inbounds nuw %struct.RangeTblRef, ptr %22, i32 0, i32 1
  store i32 %21, ptr %23, align 4
  %24 = load ptr, ptr %6, align 8
  %25 = getelementptr inbounds nuw %struct.ParseState, ptr %24, i32 0, i32 8
  %26 = load ptr, ptr %25, align 8
  %27 = load ptr, ptr %11, align 8
  %28 = call ptr @lappend(ptr noundef %26, ptr noundef %27)
  %29 = load ptr, ptr %6, align 8
  %30 = getelementptr inbounds nuw %struct.ParseState, ptr %29, i32 0, i32 8
  store ptr %28, ptr %30, align 8
  call void @llvm.lifetime.end.p0(i64 8, ptr %11) #8
  br label %31

31:                                               ; preds = %17, %5
  %32 = load i8, ptr %9, align 1, !range !6, !noundef !7
  %33 = trunc i8 %32 to i1
  br i1 %33, label %37, label %34

34:                                               ; preds = %31
  %35 = load i8, ptr %10, align 1, !range !6, !noundef !7
  %36 = trunc i8 %35 to i1
  br i1 %36, label %37, label %59

37:                                               ; preds = %34, %31
  %38 = load i8, ptr %9, align 1, !range !6, !noundef !7
  %39 = trunc i8 %38 to i1
  %40 = load ptr, ptr %7, align 8
  %41 = getelementptr inbounds nuw %struct.ParseNamespaceItem, ptr %40, i32 0, i32 5
  %42 = zext i1 %39 to i8
  store i8 %42, ptr %41, align 8
  %43 = load i8, ptr %10, align 1, !range !6, !noundef !7
  %44 = trunc i8 %43 to i1
  %45 = load ptr, ptr %7, align 8
  %46 = getelementptr inbounds nuw %struct.ParseNamespaceItem, ptr %45, i32 0, i32 6
  %47 = zext i1 %44 to i8
  store i8 %47, ptr %46, align 1
  %48 = load ptr, ptr %7, align 8
  %49 = getelementptr inbounds nuw %struct.ParseNamespaceItem, ptr %48, i32 0, i32 7
  store i8 0, ptr %49, align 2
  %50 = load ptr, ptr %7, align 8
  %51 = getelementptr inbounds nuw %struct.ParseNamespaceItem, ptr %50, i32 0, i32 8
  store i8 1, ptr %51, align 1
  %52 = load ptr, ptr %6, align 8
  %53 = getelementptr inbounds nuw %struct.ParseState, ptr %52, i32 0, i32 9
  %54 = load ptr, ptr %53, align 8
  %55 = load ptr, ptr %7, align 8
  %56 = call ptr @lappend(ptr noundef %54, ptr noundef %55)
  %57 = load ptr, ptr %6, align 8
  %58 = getelementptr inbounds nuw %struct.ParseState, ptr %57, i32 0, i32 9
  store ptr %56, ptr %58, align 8
  br label %59

59:                                               ; preds = %37, %34
  ret void
}