; Function Attrs: nounwind uwtable
define dso_local void @addNSItemToQuery(ptr noundef captures(none) %0, ptr noundef %1, i1 noundef zeroext %2, i1 noundef zeroext %3, i1 noundef zeroext %4) local_unnamed_addr #0 {
  %6 = zext i1 %3 to i8
  %7 = zext i1 %4 to i8
  br i1 %2, label %8, label %16

8:                                                ; preds = %5
  %9 = tail call noundef ptr @palloc0(i64 noundef 8) #11
  store i32 63, ptr %9, align 4
  %10 = getelementptr inbounds nuw i8, ptr %1, i64 16
  %11 = load i32, ptr %10, align 8
  %12 = getelementptr inbounds nuw i8, ptr %9, i64 4
  store i32 %11, ptr %12, align 4
  %13 = getelementptr inbounds nuw i8, ptr %0, i64 56
  %14 = load ptr, ptr %13, align 8
  %15 = tail call ptr @lappend(ptr noundef %14, ptr noundef nonnull %9) #11
  store ptr %15, ptr %13, align 8
  br label %16

16:                                               ; preds = %8, %5
  %brmerge = or i1 %3, %4
  br i1 %brmerge, label %17, label %25

17:                                               ; preds = %16
  %18 = getelementptr inbounds nuw i8, ptr %1, i64 40
  store i8 %6, ptr %18, align 8
  %19 = getelementptr inbounds nuw i8, ptr %1, i64 41
  store i8 %7, ptr %19, align 1
  %20 = getelementptr inbounds nuw i8, ptr %1, i64 42
  store i8 0, ptr %20, align 2
  %21 = getelementptr inbounds nuw i8, ptr %1, i64 43
  store i8 1, ptr %21, align 1
  %22 = getelementptr inbounds nuw i8, ptr %0, i64 64
  %23 = load ptr, ptr %22, align 8
  %24 = tail call ptr @lappend(ptr noundef %23, ptr noundef %1) #11
  store ptr %24, ptr %22, align 8
  br label %25

25:                                               ; preds = %16, %17
  ret void
}